target datalayout = "e-m:e-p270:32:32-p271:32:32-p272:64:64-i64:64-i128:128-f80:128-n8:16:32:64-S128"
target triple = "x86_64-pc-linux-gnu"

%struct.ObjectClass = type { ptr, ptr, [4 x ptr], [4 x ptr], ptr, ptr }
%struct.ErrorPropagator = type { ptr, ptr }
%struct.FWCfgDataGeneratorClass = type { %struct.InterfaceClass, ptr }
%struct.InterfaceClass = type { %struct.ObjectClass, ptr }
%struct._GByteArray = type { ptr, i32 }

@.str.1 = private unnamed_addr constant [26 x i8] c"../qemu/hw/nvram/fw_cfg.c\00", align 1
@error_fatal = external global ptr, align 8
@__func__.fw_cfg_add_file_from_generator = private unnamed_addr constant [31 x i8] c"fw_cfg_add_file_from_generator\00", align 1
@.str.7 = private unnamed_addr constant [27 x i8] c"Cannot find object ID '%s'\00", align 1
@.str.8 = private unnamed_addr constant [22 x i8] c"fw_cfg-data-generator\00", align 1
@.str.9 = private unnamed_addr constant [38 x i8] c"Object ID '%s' is not a '%s' subclass\00", align 1
@.str.80 = private unnamed_addr constant [104 x i8] c"/home/dtcxzyw/WorkSpace/Projects/compilers/llvm-opt-benchmark/bench/qemu/qemu/include/hw/nvram/fw_cfg.h\00", align 1
@__func__.FW_CFG_DATA_GENERATOR_GET_CLASS = private unnamed_addr constant [32 x i8] c"FW_CFG_DATA_GENERATOR_GET_CLASS\00", align 1

; Function Attrs: inlinehint nounwind sspstrong uwtable
define internal void @error_propagator_cleanup(ptr noundef %0) #2 {
  %2 = alloca ptr, align 8
  store ptr %0, ptr %2, align 8
  %3 = load ptr, ptr %2, align 8
  %4 = getelementptr inbounds nuw %struct.ErrorPropagator, ptr %3, i32 0, i32 1
  %5 = load ptr, ptr %4, align 8
  %6 = load ptr, ptr %2, align 8
  %7 = getelementptr inbounds nuw %struct.ErrorPropagator, ptr %6, i32 0, i32 0
  %8 = load ptr, ptr %7, align 8
  call void @error_propagate(ptr noundef %5, ptr noundef %8)
  ret void
}

; Function Attrs: inlinehint nounwind sspstrong uwtable
define internal void @glib_auto_cleanup_ErrorPropagator(ptr noundef %0) #2 {
  %2 = alloca ptr, align 8
  store ptr %0, ptr %2, align 8
  %3 = load ptr, ptr %2, align 8
  call void @error_propagator_cleanup(ptr noundef %3)
  ret void
}

; Function Attrs: nounwind sspstrong uwtable
define dso_local void @fw_cfg_add_file(ptr noundef %0, ptr noundef %1, ptr noundef %2, i64 noundef %3) #0 {
  %5 = alloca ptr, align 8
  %6 = alloca ptr, align 8
  %7 = alloca ptr, align 8
  %8 = alloca i64, align 8
  store ptr %0, ptr %5, align 8
  store ptr %1, ptr %6, align 8
  store ptr %2, ptr %7, align 8
  store i64 %3, ptr %8, align 8
  %9 = load ptr, ptr %5, align 8
  %10 = load ptr, ptr %6, align 8
  %11 = load ptr, ptr %7, align 8
  %12 = load i64, ptr %8, align 8
  call void @fw_cfg_add_file_callback(ptr noundef %9, ptr noundef %10, ptr noundef null, ptr noundef null, ptr noundef null, ptr noundef %11, i64 noundef %12, i1 noundef zeroext true)
  ret void
}

; Function Attrs: inlinehint nounwind sspstrong uwtable
define internal ptr @FW_CFG_DATA_GENERATOR_GET_CLASS(ptr noundef %0) #2 {
  %2 = alloca ptr, align 8
  store ptr %0, ptr %2, align 8
  %3 = load ptr, ptr %2, align 8
  %4 = call ptr @object_get_class(ptr noundef %3)
  %5 = call ptr @object_class_dynamic_cast_assert(ptr noundef %4, ptr noundef @.str.8, ptr noundef @.str.80, i32 noundef 21, ptr noundef @__func__.FW_CFG_DATA_GENERATOR_GET_CLASS)
  ret ptr %5
}

; Function Attrs: nounwind sspstrong uwtable
define dso_local zeroext i1 @fw_cfg_add_file_from_generator(ptr noundef %0, ptr noundef %1, ptr noundef %2, ptr noundef %3, ptr noundef %4) #0 {
  %6 = alloca i1, align 1
  %7 = alloca ptr, align 8
  %8 = alloca ptr, align 8
  %9 = alloca ptr, align 8
  %10 = alloca ptr, align 8
  %11 = alloca ptr, align 8
  %12 = alloca %struct.ErrorPropagator, align 8
  %13 = alloca ptr, align 8
  %14 = alloca ptr, align 8
  %15 = alloca ptr, align 8
  %16 = alloca i64, align 8
  %17 = alloca i32, align 4
  store ptr %0, ptr %7, align 8
  store ptr %1, ptr %8, align 8
  store ptr %2, ptr %9, align 8
  store ptr %3, ptr %10, align 8
  store ptr %4, ptr %11, align 8
  call void @llvm.lifetime.start.p0(i64 16, ptr %12) #18
  call void @llvm.memset.p0.i64(ptr align 8 %12, i8 0, i64 16, i1 false), !annotation !6
  %18 = getelementptr inbounds nuw %struct.ErrorPropagator, ptr %12, i32 0, i32 0
  store ptr null, ptr %18, align 8
  %19 = getelementptr inbounds nuw %struct.ErrorPropagator, ptr %12, i32 0, i32 1
  %20 = load ptr, ptr %11, align 8
  store ptr %20, ptr %19, align 8
  br label %21

21:                                               ; preds = %5
  %22 = load ptr, ptr %11, align 8
  %23 = icmp ne ptr %22, null
  br i1 %23, label %24, label %27

24:                                               ; preds = %21
  %25 = load ptr, ptr %11, align 8
  %26 = icmp eq ptr %25, @error_fatal
  br i1 %26, label %27, label %29

27:                                               ; preds = %24, %21
  %28 = getelementptr inbounds nuw %struct.ErrorPropagator, ptr %12, i32 0, i32 0
  store ptr %28, ptr %11, align 8
  br label %29

29:                                               ; preds = %27, %24
  br label %30

30:                                               ; preds = %29
  br label %31

31:                                               ; preds = %30
  call void @llvm.lifetime.start.p0(i64 8, ptr %13) #18
  store ptr null, ptr %13, align 8, !annotation !6
  call void @llvm.lifetime.start.p0(i64 8, ptr %14) #18
  store ptr null, ptr %14, align 8, !annotation !6
  call void @llvm.lifetime.start.p0(i64 8, ptr %15) #18
  store ptr null, ptr %15, align 8, !annotation !6
  call void @llvm.lifetime.start.p0(i64 8, ptr %16) #18
  store i64 0, ptr %16, align 8, !annotation !6
  %32 = load ptr, ptr %8, align 8
  %33 = load ptr, ptr %9, align 8
  %34 = call ptr @object_resolve_path_component(ptr noundef %32, ptr noundef %33)
  store ptr %34, ptr %15, align 8
  %35 = load ptr, ptr %15, align 8
  %36 = icmp ne ptr %35, null
  br i1 %36, label %40, label %37

37:                                               ; preds = %31
  %38 = load ptr, ptr %11, align 8
  %39 = load ptr, ptr %9, align 8
  call void (ptr, ptr, i32, ptr, ptr, ...) @error_setg_internal(ptr noundef %38, ptr noundef @.str.1, i32 noundef 1040, ptr noundef @__func__.fw_cfg_add_file_from_generator, ptr noundef @.str.7, ptr noundef %39)
  store i1 false, ptr %6, align 1
  store i32 1, ptr %17, align 4
  br label %73

40:                                               ; preds = %31
  %41 = load ptr, ptr %15, align 8
  %42 = call ptr @object_dynamic_cast(ptr noundef %41, ptr noundef @.str.8)
  %43 = icmp ne ptr %42, null
  br i1 %43, label %47, label %44

44:                                               ; preds = %40
  %45 = load ptr, ptr %11, align 8
  %46 = load ptr, ptr %9, align 8
  call void (ptr, ptr, i32, ptr, ptr, ...) @error_setg_internal(ptr noundef %45, ptr noundef @.str.1, i32 noundef 1045, ptr noundef @__func__.fw_cfg_add_file_from_generator, ptr noundef @.str.9, ptr noundef %46, ptr noundef @.str.8)
  store i1 false, ptr %6, align 1
  store i32 1, ptr %17, align 4
  br label %73

47:                                               ; preds = %40
  %48 = load ptr, ptr %15, align 8
  %49 = call ptr @FW_CFG_DATA_GENERATOR_GET_CLASS(ptr noundef %48)
  store ptr %49, ptr %13, align 8
  %50 = load ptr, ptr %13, align 8
  %51 = getelementptr inbounds nuw %struct.FWCfgDataGeneratorClass, ptr %50, i32 0, i32 1
  %52 = load ptr, ptr %51, align 8
  %53 = load ptr, ptr %15, align 8
  %54 = load ptr, ptr %11, align 8
  %55 = call ptr %52(ptr noundef %53, ptr noundef %54)
  store ptr %55, ptr %14, align 8
  %56 = load ptr, ptr %11, align 8
  %57 = load ptr, ptr %56, align 8
  %58 = icmp ne ptr %57, null
  br i1 %58, label %62, label %59

59:                                               ; preds = %47
  %60 = load ptr, ptr %14, align 8
  %61 = icmp ne ptr %60, null
  br i1 %61, label %63, label %62

62:                                               ; preds = %59, %47
  store i1 false, ptr %6, align 1
  store i32 1, ptr %17, align 4
  br label %73

63:                                               ; preds = %59
  %64 = load ptr, ptr %14, align 8
  %65 = getelementptr inbounds nuw %struct._GByteArray, ptr %64, i32 0, i32 1
  %66 = load i32, ptr %65, align 8
  %67 = zext i32 %66 to i64
  store i64 %67, ptr %16, align 8
  %68 = load ptr, ptr %7, align 8
  %69 = load ptr, ptr %10, align 8
  %70 = load ptr, ptr %14, align 8
  %71 = call ptr @g_byte_array_free(ptr noundef %70, i32 noundef 0)
  %72 = load i64, ptr %16, align 8
  call void @fw_cfg_add_file(ptr noundef %68, ptr noundef %69, ptr noundef %71, i64 noundef %72)
  store i1 true, ptr %6, align 1
  store i32 1, ptr %17, align 4
  br label %73

73:                                               ; preds = %63, %62, %44, %37
  call void @llvm.lifetime.end.p0(i64 8, ptr %16) #18
  call void @llvm.lifetime.end.p0(i64 8, ptr %15) #18
  call void @llvm.lifetime.end.p0(i64 8, ptr %14) #18
  call void @llvm.lifetime.end.p0(i64 8, ptr %13) #18
  call void @glib_auto_cleanup_ErrorPropagator(ptr noundef %12)
  call void @llvm.lifetime.end.p0(i64 16, ptr %12) #18
  %74 = load i1, ptr %6, align 1
  ret i1 %74
}