; Function Attrs: nounwind sspstrong uwtable
define dso_local noundef zeroext i1 @fw_cfg_add_file_from_generator(ptr noundef %0, ptr noundef %1, ptr noundef %2, ptr noundef %3, ptr noundef %4) local_unnamed_addr #2 {
  %6 = alloca %struct.ErrorPropagator, align 8
  call void @llvm.lifetime.start.p0(i64 16, ptr nonnull %6) #18
  %7 = getelementptr inbounds nuw i8, ptr %6, i64 8
  store i64 0, ptr %6, align 8
  store ptr %4, ptr %7, align 8
  %8 = icmp eq ptr %4, null
  %9 = icmp eq ptr %4, @error_fatal
  %or.cond = or i1 %8, %9
  %spec.select = select i1 %or.cond, ptr %6, ptr %4
  %10 = tail call ptr @object_resolve_path_component(ptr noundef %1, ptr noundef %2) #18
  %.not = icmp eq ptr %10, null
  br i1 %.not, label %11, label %12

11:                                               ; preds = %5
  call void (ptr, ptr, i32, ptr, ptr, ...) @error_setg_internal(ptr noundef nonnull %spec.select, ptr noundef nonnull @.str.1, i32 noundef 1040, ptr noundef nonnull @__func__.fw_cfg_add_file_from_generator, ptr noundef nonnull @.str.7, ptr noundef %2) #18
  br label %29

12:                                               ; preds = %5
  %13 = tail call ptr @object_dynamic_cast(ptr noundef nonnull %10, ptr noundef nonnull @.str.8) #18
  %.not29 = icmp eq ptr %13, null
  br i1 %.not29, label %14, label %15

14:                                               ; preds = %12
  call void (ptr, ptr, i32, ptr, ptr, ...) @error_setg_internal(ptr noundef nonnull %spec.select, ptr noundef nonnull @.str.1, i32 noundef 1045, ptr noundef nonnull @__func__.fw_cfg_add_file_from_generator, ptr noundef nonnull @.str.9, ptr noundef %2, ptr noundef nonnull @.str.8) #18
  br label %29

15:                                               ; preds = %12
  %16 = tail call ptr @object_get_class(ptr noundef nonnull %10) #18
  %17 = tail call ptr @object_class_dynamic_cast_assert(ptr noundef %16, ptr noundef nonnull @.str.8, ptr noundef nonnull @.str.80, i32 noundef 21, ptr noundef nonnull @__func__.FW_CFG_DATA_GENERATOR_GET_CLASS) #18
  %18 = getelementptr inbounds nuw i8, ptr %17, i64 104
  %19 = load ptr, ptr %18, align 8
  %20 = call ptr %19(ptr noundef nonnull %10, ptr noundef nonnull %spec.select) #18
  %21 = load ptr, ptr %spec.select, align 8
  %22 = icmp eq ptr %21, null
  %23 = icmp ne ptr %20, null
  %or.cond3 = select i1 %22, i1 %23, i1 false
  br i1 %or.cond3, label %24, label %29

24:                                               ; preds = %15
  %25 = getelementptr inbounds nuw i8, ptr %20, i64 8
  %26 = load i32, ptr %25, align 8
  %27 = zext i32 %26 to i64
  %28 = call ptr @g_byte_array_free(ptr noundef nonnull %20, i32 noundef 0) #18
  call void @fw_cfg_add_file_callback(ptr noundef %0, ptr noundef %3, ptr noundef null, ptr noundef null, ptr noundef null, ptr noundef %28, i64 noundef %27, i1 noundef zeroext true)
  br label %29

29:                                               ; preds = %15, %24, %14, %11
  %.025 = phi i1 [ true, %24 ], [ false, %14 ], [ false, %11 ], [ false, %15 ]
  %.val = load ptr, ptr %6, align 8
  %.val30 = load ptr, ptr %7, align 8
  call void @error_propagate(ptr noundef %.val30, ptr noundef %.val) #18
  call void @llvm.lifetime.end.p0(i64 16, ptr nonnull %6) #18
  ret i1 %.025
}